	.file	"sum.c"
	.text
	.globl	ArraySum
	.type	ArraySum, @function
ArraySum:
.LFB0:
	.cfi_startproc
	pushq	%rbp
	.cfi_def_cfa_offset 16
	.cfi_offset 6, -16
	movq	%rsp, %rbp
	.cfi_def_cfa_register 6
	movq	%rdi, -24(%rbp)
	movl	%esi, -28(%rbp)
	movl	$0, -4(%rbp)
	movl	$0, -8(%rbp)
	jmp	.L2
.L3:
	movl	-8(%rbp), %eax
	cltq
	leaq	0(,%rax,4), %rdx
	movq	-24(%rbp), %rax
	addq	%rdx, %rax
	movl	(%rax), %eax
	addl	%eax, -4(%rbp)
	addl	$1, -8(%rbp)
.L2:
	movl	-8(%rbp), %eax
	cmpl	-28(%rbp), %eax
	jl	.L3
	movl	-4(%rbp), %eax
	popq	%rbp
	.cfi_def_cfa 7, 8
	ret
	.cfi_endproc
.LFE0:
	.size	ArraySum, .-ArraySum
	.globl	main
	.type	main, @function
main:
.LFB1:
	.cfi_startproc
	pushq	%rbp
	.cfi_def_cfa_offset 16
	.cfi_offset 6, -16
	movq	%rsp, %rbp
	.cfi_def_cfa_register 6
	subq	$32, %rsp
	movl	$1, -32(%rbp)
	movl	$2, -28(%rbp)
	movl	$3, -24(%rbp)
	movl	$4, -20(%rbp)
	movl	$5, -16(%rbp)
	leaq	-32(%rbp), %rax
	movl	$5, %esi
	movq	%rax, %rdi
	call	ArraySum
	movl	%eax, -4(%rbp)
	movl	-4(%rbp), %eax
	leave
	.cfi_def_cfa 7, 8
	ret
	.cfi_endproc
.LFE1:
	.size	main, .-main
	.ident	"GCC: (GNU) 9.3.1 20200408 (Red Hat 9.3.1-2)"
	.section	.note.GNU-stack,"",@progbits
